; Function Attrs: nounwind uwtable
define dso_local ptr @mp_realloc(ptr noundef %0, ptr noundef %1, i64 noundef %2, i64 noundef %3) local_unnamed_addr #2 {
  %5 = alloca ptr, align 8
  call void @llvm.lifetime.start.p0(i64 8, ptr nonnull %5) #10
  %6 = call ptr @lua_getallocf(ptr noundef %0, ptr noundef nonnull %5) #10
  %7 = load ptr, ptr %5, align 8, !tbaa !9
  %8 = call ptr %6(ptr noundef %7, ptr noundef %1, i64 noundef %2, i64 noundef %3) #10
  call void @llvm.lifetime.end.p0(i64 8, ptr nonnull %5) #10
  ret ptr %8
}